target datalayout = "e-m:e-p270:32:32-p271:32:32-p272:64:64-i64:64-i128:128-f80:128-n8:16:32:64-S128"
target triple = "x86_64-pc-linux-gnu"

@.str.28 = private unnamed_addr constant [2 x i8] c"\0A\00", align 1
@.str.31 = private unnamed_addr constant [22 x i8] c"Verification passed.\0A\00", align 1
@.str.32 = private unnamed_addr constant [22 x i8] c"Verification FAILED.\0A\00", align 1

; Function Attrs: mustprogress nounwind uwtable
define noundef ptr @_Z21glucose2_solver_startv() #0 {
  %1 = alloca ptr, align 8
  call void @llvm.lifetime.start.p0(i64 8, ptr %1) #15
  %2 = call noalias noundef nonnull ptr @_Znwm(i64 noundef 1688) #16
  call void @_ZN6Gluco210SimpSolverC1Ev(ptr noundef nonnull align 8 dereferenceable(1684) %2)
  store ptr %2, ptr %1, align 8, !tbaa !3
  %3 = load ptr, ptr %1, align 8, !tbaa !3
  call void @_ZN6Gluco26Solver18setIncrementalModeEv(ptr noundef nonnull align 8 dereferenceable(1416) %3)
  %4 = load ptr, ptr %1, align 8, !tbaa !3
  call void @llvm.lifetime.end.p0(i64 8, ptr %1) #15
  ret ptr %4
}

; Function Attrs: mustprogress nounwind uwtable
define ptr @bmcg2_sat_solver_start() #0 {
  %1 = call noundef ptr @_Z21glucose2_solver_startv()
  ret ptr %1
}

; Function Attrs: mustprogress nounwind uwtable
define noundef i32 @_Z30bmcg2_sat_solver_quantify_testPPvP10Gia_Man_t_iiPFiS_iES_P10Vec_Int_t_(ptr noundef %0, ptr noundef %1, i32 noundef %2, i32 noundef %3, ptr noundef %4, ptr noundef %5, ptr noundef %6) #0 {
  %8 = alloca ptr, align 8
  %9 = alloca ptr, align 8
  %10 = alloca i32, align 4
  %11 = alloca i32, align 4
  %12 = alloca ptr, align 8
  %13 = alloca ptr, align 8
  %14 = alloca ptr, align 8
  %15 = alloca i32, align 4
  %16 = alloca i32, align 4
  %17 = alloca ptr, align 8
  store ptr %0, ptr %8, align 8, !tbaa !30
  store ptr %1, ptr %9, align 8, !tbaa !144
  store i32 %2, ptr %10, align 4, !tbaa !12
  store i32 %3, ptr %11, align 4, !tbaa !12
  store ptr %4, ptr %12, align 8, !tbaa !30
  store ptr %5, ptr %13, align 8, !tbaa !30
  store ptr %6, ptr %14, align 8, !tbaa !156
  call void @llvm.lifetime.start.p0(i64 4, ptr %15) #15
  %18 = load ptr, ptr %9, align 8, !tbaa !144
  %19 = load i32, ptr %10, align 4, !tbaa !12
  %20 = load ptr, ptr %12, align 8, !tbaa !30
  %21 = load ptr, ptr %13, align 8, !tbaa !30
  %22 = call i32 @Gia_ManQuantExist(ptr noundef %18, i32 noundef %19, ptr noundef %20, ptr noundef %21)
  store i32 %22, ptr %15, align 4, !tbaa !12
  call void @llvm.lifetime.start.p0(i64 4, ptr %16) #15
  %23 = load ptr, ptr %9, align 8, !tbaa !144
  %24 = load i32, ptr %10, align 4, !tbaa !12
  %25 = load ptr, ptr %12, align 8, !tbaa !30
  %26 = load ptr, ptr %13, align 8, !tbaa !30
  %27 = call noundef i32 @_Z26bmcg2_sat_solver_quantify2P10Gia_Man_t_iiPFiPviES1_P10Vec_Int_t_(ptr noundef %23, i32 noundef %24, i32 noundef 1, ptr noundef %25, ptr noundef %26, ptr noundef null)
  store i32 %27, ptr %16, align 4, !tbaa !12
  call void @llvm.lifetime.start.p0(i64 8, ptr %17) #15
  %28 = call ptr @bmcg2_sat_solver_start()
  store ptr %28, ptr %17, align 8, !tbaa !30
  %29 = load ptr, ptr %17, align 8, !tbaa !30
  %30 = load ptr, ptr %9, align 8, !tbaa !144
  %31 = load i32, ptr %15, align 4, !tbaa !12
  %32 = load i32, ptr %16, align 4, !tbaa !12
  %33 = call i32 @bmcg2_sat_solver_equiv_overlap_check(ptr noundef %29, ptr noundef %30, i32 noundef %31, i32 noundef %32, i32 noundef 1)
  %34 = icmp ne i32 %33, 0
  br i1 %34, label %35, label %37

35:                                               ; preds = %7
  %36 = call i32 (ptr, ...) @printf(ptr noundef @.str.31)
  br label %44

37:                                               ; preds = %7
  %38 = call i32 (ptr, ...) @printf(ptr noundef @.str.32)
  %39 = load ptr, ptr %9, align 8, !tbaa !144
  %40 = load i32, ptr %15, align 4, !tbaa !12
  call void @_Z30bmcg2_sat_solver_print_sop_litP10Gia_Man_t_i(ptr noundef %39, i32 noundef %40)
  %41 = load ptr, ptr %9, align 8, !tbaa !144
  %42 = load i32, ptr %16, align 4, !tbaa !12
  call void @_Z30bmcg2_sat_solver_print_sop_litP10Gia_Man_t_i(ptr noundef %41, i32 noundef %42)
  %43 = call i32 (ptr, ...) @printf(ptr noundef @.str.28)
  br label %44

44:                                               ; preds = %37, %35
  %45 = load i32, ptr %15, align 4, !tbaa !12
  call void @llvm.lifetime.end.p0(i64 8, ptr %17) #15
  call void @llvm.lifetime.end.p0(i64 4, ptr %16) #15
  call void @llvm.lifetime.end.p0(i64 4, ptr %15) #15
  ret i32 %45
}