; Function Attrs: mustprogress nounwind uwtable
define noundef i32 @_Z30bmcg2_sat_solver_quantify_testPPvP10Gia_Man_t_iiPFiS_iES_P10Vec_Int_t_(ptr noundef readnone captures(none) %0, ptr noundef %1, i32 noundef %2, i32 noundef %3, ptr noundef %4, ptr noundef %5, ptr noundef readnone captures(none) %6) local_unnamed_addr #0 {
  %8 = tail call i32 @Gia_ManQuantExist(ptr noundef %1, i32 noundef %2, ptr noundef %4, ptr noundef %5) #30
  %9 = tail call noundef i32 @_Z26bmcg2_sat_solver_quantify2P10Gia_Man_t_iiPFiPviES1_P10Vec_Int_t_(ptr noundef %1, i32 noundef %2, i32 poison, ptr noundef %4, ptr noundef %5, ptr noundef null)
  %10 = tail call noalias noundef nonnull dereferenceable(1688) ptr @_Znwm(i64 noundef 1688) #29
  tail call void @_ZN6Gluco210SimpSolverC1Ev(ptr noundef nonnull align 8 dereferenceable(1684) %10) #30
  tail call void @_ZN6Gluco26Solver18setIncrementalModeEv(ptr noundef nonnull align 8 dereferenceable(1416) %10) #30
  %11 = tail call i32 @bmcg2_sat_solver_equiv_overlap_check(ptr noundef nonnull %10, ptr noundef %1, i32 noundef %8, i32 noundef %9, i32 noundef 1)
  %.not = icmp eq i32 %11, 0
  br i1 %.not, label %13, label %12

12:                                               ; preds = %7
  %puts16 = tail call i32 @puts(ptr nonnull dereferenceable(1) @str.6)
  br label %14

13:                                               ; preds = %7
  %puts = tail call i32 @puts(ptr nonnull dereferenceable(1) @str.5)
  tail call void @_Z30bmcg2_sat_solver_print_sop_litP10Gia_Man_t_i(ptr noundef %1, i32 noundef %8)
  tail call void @_Z30bmcg2_sat_solver_print_sop_litP10Gia_Man_t_i(ptr noundef %1, i32 noundef %9)
  %putchar = tail call i32 @putchar(i32 10)
  br label %14

14:                                               ; preds = %13, %12
  ret i32 %8
}